target datalayout = "e-m:e-p270:32:32-p271:32:32-p272:64:64-i64:64-i128:128-f80:128-n8:16:32:64-S128"
target triple = "x86_64-pc-linux-gnu"

%struct.VLC = type { i32, ptr, i32, i32 }
%struct.COOKSubpacket = type { i32, i32, i32, i32, i32, i32, i32, i32, i32, i32, %struct.VLC, i32, i32, i32, i32, i32, [1024 x float], [1024 x float], %struct.cook_gains, %struct.cook_gains, [9 x i32], [9 x i32], [9 x i32], [9 x i32] }
%struct.cook_gains = type { ptr, ptr }

; Function Attrs: nounwind uwtable
define internal void @decouple_float(ptr noundef %0, ptr noundef %1, i32 noundef %2, float noundef %3, float noundef %4, ptr noundef %5, ptr noundef %6, ptr noundef %7) #1 {
  %9 = alloca ptr, align 8
  %10 = alloca ptr, align 8
  %11 = alloca i32, align 4
  %12 = alloca float, align 4
  %13 = alloca float, align 4
  %14 = alloca ptr, align 8
  %15 = alloca ptr, align 8
  %16 = alloca ptr, align 8
  %17 = alloca i32, align 4
  %18 = alloca i32, align 4
  store ptr %0, ptr %9, align 8, !tbaa !29
  store ptr %1, ptr %10, align 8, !tbaa !121
  store i32 %2, ptr %11, align 4, !tbaa !31
  store float %3, ptr %12, align 4, !tbaa !108
  store float %4, ptr %13, align 4, !tbaa !108
  store ptr %5, ptr %14, align 8, !tbaa !112
  store ptr %6, ptr %15, align 8, !tbaa !112
  store ptr %7, ptr %16, align 8, !tbaa !112
  call void @llvm.lifetime.start.p0(i64 4, ptr %17) #11
  call void @llvm.lifetime.start.p0(i64 4, ptr %18) #11
  store i32 0, ptr %17, align 4, !tbaa !31
  br label %19

19:                                               ; preds = %59, %8
  %20 = load i32, ptr %17, align 4, !tbaa !31
  %21 = icmp slt i32 %20, 20
  br i1 %21, label %22, label %62

22:                                               ; preds = %19
  %23 = load ptr, ptr %10, align 8, !tbaa !121
  %24 = getelementptr inbounds nuw %struct.COOKSubpacket, ptr %23, i32 0, i32 5
  %25 = load i32, ptr %24, align 4, !tbaa !49
  %26 = load i32, ptr %11, align 4, !tbaa !31
  %27 = add nsw i32 %25, %26
  %28 = mul nsw i32 %27, 20
  %29 = load i32, ptr %17, align 4, !tbaa !31
  %30 = add nsw i32 %28, %29
  store i32 %30, ptr %18, align 4, !tbaa !31
  %31 = load float, ptr %12, align 4, !tbaa !108
  %32 = load ptr, ptr %14, align 8, !tbaa !112
  %33 = load i32, ptr %18, align 4, !tbaa !31
  %34 = sext i32 %33 to i64
  %35 = getelementptr inbounds float, ptr %32, i64 %34
  %36 = load float, ptr %35, align 4, !tbaa !108
  %37 = fmul nsz float %31, %36
  %38 = load ptr, ptr %15, align 8, !tbaa !112
  %39 = load i32, ptr %11, align 4, !tbaa !31
  %40 = mul nsw i32 20, %39
  %41 = load i32, ptr %17, align 4, !tbaa !31
  %42 = add nsw i32 %40, %41
  %43 = sext i32 %42 to i64
  %44 = getelementptr inbounds float, ptr %38, i64 %43
  store float %37, ptr %44, align 4, !tbaa !108
  %45 = load float, ptr %13, align 4, !tbaa !108
  %46 = load ptr, ptr %14, align 8, !tbaa !112
  %47 = load i32, ptr %18, align 4, !tbaa !31
  %48 = sext i32 %47 to i64
  %49 = getelementptr inbounds float, ptr %46, i64 %48
  %50 = load float, ptr %49, align 4, !tbaa !108
  %51 = fmul nsz float %45, %50
  %52 = load ptr, ptr %16, align 8, !tbaa !112
  %53 = load i32, ptr %11, align 4, !tbaa !31
  %54 = mul nsw i32 20, %53
  %55 = load i32, ptr %17, align 4, !tbaa !31
  %56 = add nsw i32 %54, %55
  %57 = sext i32 %56 to i64
  %58 = getelementptr inbounds float, ptr %52, i64 %57
  store float %51, ptr %58, align 4, !tbaa !108
  br label %59

59:                                               ; preds = %22
  %60 = load i32, ptr %17, align 4, !tbaa !31
  %61 = add nsw i32 %60, 1
  store i32 %61, ptr %17, align 4, !tbaa !31
  br label %19, !llvm.loop !123

62:                                               ; preds = %19
  call void @llvm.lifetime.end.p0(i64 4, ptr %18) #11
  call void @llvm.lifetime.end.p0(i64 4, ptr %17) #11
  ret void
}